target datalayout = "e-m:e-p270:32:32-p271:32:32-p272:64:64-i64:64-i128:128-f80:128-n8:16:32:64-S128"
target triple = "x86_64-pc-linux-gnu"

%struct.slurm_cred_arg_t = type { %struct.slurm_step_id_msg, i32, i32, ptr, i16, ptr, ptr, ptr, i32, ptr, ptr, ptr, ptr, ptr, ptr, ptr, i16, i64, ptr, ptr, ptr, ptr, ptr, i32, i32, ptr, i32, i16, ptr, ptr, ptr, i16, ptr, i64, ptr, ptr, ptr, i16, ptr, ptr, ptr, ptr, i32, ptr, ptr }
%struct.slurm_step_id_msg = type { i64, i32, i32, i32 }
%struct.slurm_cred_t = type { i32, %union.pthread_rwlock_t, ptr, i32, i16, ptr, i64, ptr, i8 }
%union.pthread_rwlock_t = type { %struct.__pthread_rwlock_arch_t }
%struct.__pthread_rwlock_arch_t = type { i32, i32, i32, i32, i32, i32, i32, i32, i8, [7 x i8], i64, i32 }

@.str.17 = private unnamed_addr constant [32 x i8] c"%s: pthread_rwlock_unlock(): %m\00", align 1
@.str.18 = private unnamed_addr constant [32 x i8] c"%s: pthread_rwlock_rdlock(): %m\00", align 1
@__func__.slurm_cred_get = private unnamed_addr constant [15 x i8] c"slurm_cred_get\00", align 1
@.str.19 = private unnamed_addr constant [36 x i8] c"%s: Invalid arg type requested (%d)\00", align 1

; Function Attrs: nounwind uwtable
define dso_local ptr @slurm_cred_get(ptr noundef %0, i32 noundef %1) #0 {
  %3 = alloca ptr, align 8
  %4 = alloca ptr, align 8
  %5 = alloca i32, align 4
  %6 = alloca ptr, align 8
  %7 = alloca i32, align 4
  %8 = alloca i32, align 4
  %9 = alloca i32, align 4
  %10 = alloca i32, align 4
  store ptr %0, ptr %4, align 8
  store i32 %1, ptr %5, align 4
  call void @llvm.lifetime.start.p0(i64 8, ptr %6) #9
  store ptr null, ptr %6, align 8
  br label %11

11:                                               ; preds = %2
  call void @llvm.lifetime.start.p0(i64 4, ptr %7) #9
  %12 = load ptr, ptr %4, align 8
  %13 = getelementptr inbounds nuw %struct.slurm_cred_t, ptr %12, i32 0, i32 1
  %14 = call i32 @pthread_rwlock_rdlock(ptr noundef %13) #9
  store i32 %14, ptr %7, align 4
  %15 = load i32, ptr %7, align 4
  %16 = icmp ne i32 %15, 0
  br i1 %16, label %17, label %20

17:                                               ; preds = %11
  %18 = load i32, ptr %7, align 4
  %19 = call ptr @__errno_location() #11
  store i32 %18, ptr %19, align 4
  call void (ptr, ...) @fatal_abort(ptr noundef @.str.18, ptr noundef @__func__.slurm_cred_get) #12
  unreachable

20:                                               ; preds = %11
  call void @llvm.lifetime.end.p0(i64 4, ptr %7) #9
  br label %21

21:                                               ; preds = %20
  br label %22

22:                                               ; preds = %21
  %23 = load ptr, ptr %4, align 8
  %24 = getelementptr inbounds nuw %struct.slurm_cred_t, ptr %23, i32 0, i32 5
  %25 = load ptr, ptr %24, align 8
  %26 = icmp ne ptr %25, null
  br i1 %26, label %40, label %27

27:                                               ; preds = %22
  br label %28

28:                                               ; preds = %27
  call void @llvm.lifetime.start.p0(i64 4, ptr %8) #9
  %29 = load ptr, ptr %4, align 8
  %30 = getelementptr inbounds nuw %struct.slurm_cred_t, ptr %29, i32 0, i32 1
  %31 = call i32 @pthread_rwlock_unlock(ptr noundef %30) #9
  store i32 %31, ptr %8, align 4
  %32 = load i32, ptr %8, align 4
  %33 = icmp ne i32 %32, 0
  br i1 %33, label %34, label %37

34:                                               ; preds = %28
  %35 = load i32, ptr %8, align 4
  %36 = call ptr @__errno_location() #11
  store i32 %35, ptr %36, align 4
  call void (ptr, ...) @fatal_abort(ptr noundef @.str.17, ptr noundef @__func__.slurm_cred_get) #12
  unreachable

37:                                               ; preds = %28
  call void @llvm.lifetime.end.p0(i64 4, ptr %8) #9
  br label %38

38:                                               ; preds = %37
  br label %39

39:                                               ; preds = %38
  store ptr null, ptr %3, align 8
  store i32 1, ptr %9, align 4
  br label %83

40:                                               ; preds = %22
  %41 = load i32, ptr %5, align 4
  switch i32 %41, label %66 [
    i32 1, label %42
    i32 2, label %48
    i32 3, label %54
    i32 4, label %60
  ]

42:                                               ; preds = %40
  %43 = load ptr, ptr %4, align 8
  %44 = getelementptr inbounds nuw %struct.slurm_cred_t, ptr %43, i32 0, i32 5
  %45 = load ptr, ptr %44, align 8
  %46 = getelementptr inbounds nuw %struct.slurm_cred_arg_t, ptr %45, i32 0, i32 28
  %47 = load ptr, ptr %46, align 8
  store ptr %47, ptr %6, align 8
  br label %69

48:                                               ; preds = %40
  %49 = load ptr, ptr %4, align 8
  %50 = getelementptr inbounds nuw %struct.slurm_cred_t, ptr %49, i32 0, i32 5
  %51 = load ptr, ptr %50, align 8
  %52 = getelementptr inbounds nuw %struct.slurm_cred_arg_t, ptr %51, i32 0, i32 12
  %53 = load ptr, ptr %52, align 8
  store ptr %53, ptr %6, align 8
  br label %69

54:                                               ; preds = %40
  %55 = load ptr, ptr %4, align 8
  %56 = getelementptr inbounds nuw %struct.slurm_cred_t, ptr %55, i32 0, i32 5
  %57 = load ptr, ptr %56, align 8
  %58 = getelementptr inbounds nuw %struct.slurm_cred_arg_t, ptr %57, i32 0, i32 25
  %59 = load ptr, ptr %58, align 8
  store ptr %59, ptr %6, align 8
  br label %69

60:                                               ; preds = %40
  %61 = load ptr, ptr %4, align 8
  %62 = getelementptr inbounds nuw %struct.slurm_cred_t, ptr %61, i32 0, i32 5
  %63 = load ptr, ptr %62, align 8
  %64 = getelementptr inbounds nuw %struct.slurm_cred_arg_t, ptr %63, i32 0, i32 43
  %65 = load ptr, ptr %64, align 8
  store ptr %65, ptr %6, align 8
  br label %69

66:                                               ; preds = %40
  %67 = load i32, ptr %5, align 4
  %68 = call i32 (ptr, ...) @error(ptr noundef @.str.19, ptr noundef @__func__.slurm_cred_get, i32 noundef %67)
  br label %69

69:                                               ; preds = %66, %60, %54, %48, %42
  br label %70

70:                                               ; preds = %69
  call void @llvm.lifetime.start.p0(i64 4, ptr %10) #9
  %71 = load ptr, ptr %4, align 8
  %72 = getelementptr inbounds nuw %struct.slurm_cred_t, ptr %71, i32 0, i32 1
  %73 = call i32 @pthread_rwlock_unlock(ptr noundef %72) #9
  store i32 %73, ptr %10, align 4
  %74 = load i32, ptr %10, align 4
  %75 = icmp ne i32 %74, 0
  br i1 %75, label %76, label %79

76:                                               ; preds = %70
  %77 = load i32, ptr %10, align 4
  %78 = call ptr @__errno_location() #11
  store i32 %77, ptr %78, align 4
  call void (ptr, ...) @fatal_abort(ptr noundef @.str.17, ptr noundef @__func__.slurm_cred_get) #12
  unreachable

79:                                               ; preds = %70
  call void @llvm.lifetime.end.p0(i64 4, ptr %10) #9
  br label %80

80:                                               ; preds = %79
  br label %81

81:                                               ; preds = %80
  %82 = load ptr, ptr %6, align 8
  store ptr %82, ptr %3, align 8
  store i32 1, ptr %9, align 4
  br label %83

83:                                               ; preds = %81, %39
  call void @llvm.lifetime.end.p0(i64 8, ptr %6) #9
  %84 = load ptr, ptr %3, align 8
  ret ptr %84
}