; Function Attrs: nounwind uwtable
define dso_local ptr @slurm_cred_get(ptr noundef %0, i32 noundef %1) local_unnamed_addr #0 {
  %3 = getelementptr inbounds nuw i8, ptr %0, i64 8
  %4 = tail call i32 @pthread_rwlock_rdlock(ptr noundef nonnull %3) #11
  %.not = icmp eq i32 %4, 0
  br i1 %.not, label %7, label %5

5:                                                ; preds = %2
  %6 = tail call ptr @__errno_location() #12
  store i32 %4, ptr %6, align 4
  tail call void (ptr, ...) @fatal_abort(ptr noundef nonnull @.str.18, ptr noundef nonnull @__func__.slurm_cred_get) #13
  unreachable

7:                                                ; preds = %2
  %8 = getelementptr inbounds nuw i8, ptr %0, i64 80
  %9 = load ptr, ptr %8, align 8
  %.not22 = icmp eq ptr %9, null
  br i1 %.not22, label %10, label %14

10:                                               ; preds = %7
  %11 = tail call i32 @pthread_rwlock_unlock(ptr noundef nonnull %3) #11
  %.not23 = icmp eq i32 %11, 0
  br i1 %.not23, label %33, label %12

12:                                               ; preds = %10
  %13 = tail call ptr @__errno_location() #12
  store i32 %11, ptr %13, align 4
  tail call void (ptr, ...) @fatal_abort(ptr noundef nonnull @.str.17, ptr noundef nonnull @__func__.slurm_cred_get) #13
  unreachable

14:                                               ; preds = %7
  switch i32 %1, label %27 [
    i32 1, label %15
    i32 2, label %18
    i32 3, label %21
    i32 4, label %24
  ]

15:                                               ; preds = %14
  %16 = getelementptr inbounds nuw i8, ptr %9, i64 216
  %17 = load ptr, ptr %16, align 8
  br label %29

18:                                               ; preds = %14
  %19 = getelementptr inbounds nuw i8, ptr %9, i64 104
  %20 = load ptr, ptr %19, align 8
  br label %29

21:                                               ; preds = %14
  %22 = getelementptr inbounds nuw i8, ptr %9, i64 200
  %23 = load ptr, ptr %22, align 8
  br label %29

24:                                               ; preds = %14
  %25 = getelementptr inbounds nuw i8, ptr %9, i64 336
  %26 = load ptr, ptr %25, align 8
  br label %29

27:                                               ; preds = %14
  %28 = tail call i32 (ptr, ...) @error(ptr noundef nonnull @.str.19, ptr noundef nonnull @__func__.slurm_cred_get, i32 noundef %1) #11
  br label %29

29:                                               ; preds = %15, %18, %21, %24, %27
  %.017 = phi ptr [ null, %27 ], [ %26, %24 ], [ %23, %21 ], [ %20, %18 ], [ %17, %15 ]
  %30 = tail call i32 @pthread_rwlock_unlock(ptr noundef nonnull %3) #11
  %.not24 = icmp eq i32 %30, 0
  br i1 %.not24, label %33, label %31

31:                                               ; preds = %29
  %32 = tail call ptr @__errno_location() #12
  store i32 %30, ptr %32, align 4
  tail call void (ptr, ...) @fatal_abort(ptr noundef nonnull @.str.17, ptr noundef nonnull @__func__.slurm_cred_get) #13
  unreachable

33:                                               ; preds = %29, %10
  %.0 = phi ptr [ null, %10 ], [ %.017, %29 ]
  ret ptr %.0
}